target datalayout = "e-m:e-p270:32:32-p271:32:32-p272:64:64-i64:64-i128:128-f80:128-n8:16:32:64-S128"
target triple = "x86_64-pc-linux-gnu"

; Function Attrs: mustprogress uwtable
define hidden void @_ZN5zxing6qrcode8DataMask15unmaskBitMatrixERNS_9BitMatrixEm(ptr noundef nonnull align 8 dereferenceable(12) %0, ptr noundef nonnull align 8 dereferenceable(346) %1, i64 noundef %2) #0 align 2 {
  %4 = alloca ptr, align 8
  %5 = alloca ptr, align 8
  %6 = alloca i64, align 8
  %7 = alloca i64, align 8
  %8 = alloca i32, align 4
  %9 = alloca i64, align 8
  store ptr %0, ptr %4, align 8, !tbaa !3
  store ptr %1, ptr %5, align 8, !tbaa !32
  store i64 %2, ptr %6, align 8, !tbaa !24
  %10 = load ptr, ptr %4, align 8
  call void @llvm.lifetime.start.p0(i64 8, ptr %7) #10
  store i64 0, ptr %7, align 8, !tbaa !24
  br label %11

11:                                               ; preds = %40, %3
  %12 = load i64, ptr %7, align 8, !tbaa !24
  %13 = load i64, ptr %6, align 8, !tbaa !24
  %14 = icmp ult i64 %12, %13
  br i1 %14, label %16, label %15

15:                                               ; preds = %11
  store i32 2, ptr %8, align 4
  call void @llvm.lifetime.end.p0(i64 8, ptr %7) #10
  br label %43

16:                                               ; preds = %11
  call void @llvm.lifetime.start.p0(i64 8, ptr %9) #10
  store i64 0, ptr %9, align 8, !tbaa !24
  br label %17

17:                                               ; preds = %36, %16
  %18 = load i64, ptr %9, align 8, !tbaa !24
  %19 = load i64, ptr %6, align 8, !tbaa !24
  %20 = icmp ult i64 %18, %19
  br i1 %20, label %22, label %21

21:                                               ; preds = %17
  store i32 5, ptr %8, align 4
  call void @llvm.lifetime.end.p0(i64 8, ptr %9) #10
  br label %39

22:                                               ; preds = %17
  %23 = load i64, ptr %7, align 8, !tbaa !24
  %24 = load i64, ptr %9, align 8, !tbaa !24
  %25 = load ptr, ptr %10, align 8, !tbaa !8
  %26 = getelementptr inbounds ptr, ptr %25, i64 2
  %27 = load ptr, ptr %26, align 8
  %28 = call noundef zeroext i1 %27(ptr noundef nonnull align 8 dereferenceable(12) %10, i64 noundef %23, i64 noundef %24)
  br i1 %28, label %29, label %35

29:                                               ; preds = %22
  %30 = load ptr, ptr %5, align 8, !tbaa !32
  %31 = load i64, ptr %9, align 8, !tbaa !24
  %32 = trunc i64 %31 to i32
  %33 = load i64, ptr %7, align 8, !tbaa !24
  %34 = trunc i64 %33 to i32
  call void @_ZN5zxing9BitMatrix4flipEii(ptr noundef nonnull align 8 dereferenceable(346) %30, i32 noundef %32, i32 noundef %34)
  br label %35

35:                                               ; preds = %29, %22
  br label %36

36:                                               ; preds = %35
  %37 = load i64, ptr %9, align 8, !tbaa !24
  %38 = add i64 %37, 1
  store i64 %38, ptr %9, align 8, !tbaa !24
  br label %17, !llvm.loop !34

39:                                               ; preds = %21
  br label %40

40:                                               ; preds = %39
  %41 = load i64, ptr %7, align 8, !tbaa !24
  %42 = add i64 %41, 1
  store i64 %42, ptr %7, align 8, !tbaa !24
  br label %11, !llvm.loop !36

43:                                               ; preds = %15
  ret void
}