; Function Attrs: mustprogress uwtable
define hidden void @_ZN5zxing6qrcode8DataMask15unmaskBitMatrixERNS_9BitMatrixEm(ptr noundef nonnull align 8 dereferenceable(12) %0, ptr noundef nonnull align 8 dereferenceable(346) %1, i64 noundef %2) local_unnamed_addr #3 align 2 {
  %.not = icmp eq i64 %2, 0
  br i1 %.not, label %._crit_edge, label %.preheader

.preheader:                                       ; preds = %3, %5
  %.01114 = phi i64 [ %6, %5 ], [ 0, %3 ]
  %4 = trunc i64 %.01114 to i32
  br label %7

._crit_edge:                                      ; preds = %5, %3
  ret void

5:                                                ; preds = %14
  %6 = add nuw i64 %.01114, 1
  %exitcond15.not = icmp eq i64 %6, %2
  br i1 %exitcond15.not, label %._crit_edge, label %.preheader, !llvm.loop !25

7:                                                ; preds = %.preheader, %14
  %.013 = phi i64 [ 0, %.preheader ], [ %15, %14 ]
  %8 = load ptr, ptr %0, align 8, !tbaa !8
  %9 = getelementptr inbounds nuw i8, ptr %8, i64 16
  %10 = load ptr, ptr %9, align 8
  %11 = tail call noundef zeroext i1 %10(ptr noundef nonnull align 8 dereferenceable(12) %0, i64 noundef %.01114, i64 noundef %.013)
  br i1 %11, label %12, label %14

12:                                               ; preds = %7
  %13 = trunc i64 %.013 to i32
  tail call void @_ZN5zxing9BitMatrix4flipEii(ptr noundef nonnull align 8 dereferenceable(346) %1, i32 noundef %13, i32 noundef %4)
  br label %14

14:                                               ; preds = %7, %12
  %15 = add nuw i64 %.013, 1
  %exitcond.not = icmp eq i64 %15, %2
  br i1 %exitcond.not, label %5, label %7, !llvm.loop !27
}